target datalayout = "e-m:e-p270:32:32-p271:32:32-p272:64:64-i64:64-i128:128-f80:128-n8:16:32:64-S128"
target triple = "x86_64-pc-linux-gnu"

%"class.LIEF::PE::DelayImport" = type <{ %"class.LIEF::Object", i32, [4 x i8], %"class.std::__cxx11::basic_string", i32, i32, i32, i32, i32, i32, %"class.std::vector", i16, [6 x i8] }>
%"class.LIEF::Object" = type { ptr }
%"class.std::__cxx11::basic_string" = type { %"struct.std::__cxx11::basic_string<char>::_Alloc_hider", i64, %union.anon }
%"struct.std::__cxx11::basic_string<char>::_Alloc_hider" = type { ptr }
%union.anon = type { i64, [8 x i8] }
%"class.std::vector" = type { %"struct.std::_Vector_base" }
%"struct.std::_Vector_base" = type { %"struct.std::_Vector_base<LIEF::PE::DelayImportEntry, std::allocator<LIEF::PE::DelayImportEntry>>::_Vector_impl" }
%"struct.std::_Vector_base<LIEF::PE::DelayImportEntry, std::allocator<LIEF::PE::DelayImportEntry>>::_Vector_impl" = type { %"struct.std::_Vector_base<LIEF::PE::DelayImportEntry, std::allocator<LIEF::PE::DelayImportEntry>>::_Vector_impl_data" }
%"struct.std::_Vector_base<LIEF::PE::DelayImportEntry, std::allocator<LIEF::PE::DelayImportEntry>>::_Vector_impl_data" = type { ptr, ptr, ptr }

; Function Attrs: inlinehint mustprogress nounwind uwtable
define linkonce_odr void @_ZSt15__alloc_on_swapISaIN4LIEF2PE16DelayImportEntryEEEvRT_S5_(ptr noundef nonnull align 1 dereferenceable(1) %0, ptr noundef nonnull align 1 dereferenceable(1) %1) #1 comdat {
  %3 = alloca ptr, align 8
  %4 = alloca ptr, align 8
  store ptr %0, ptr %3, align 8, !tbaa !74
  store ptr %1, ptr %4, align 8, !tbaa !74
  ret void
}

; Function Attrs: mustprogress nounwind uwtable
define linkonce_odr hidden void @_ZNSt12_Vector_baseIN4LIEF2PE16DelayImportEntryESaIS2_EE17_Vector_impl_data12_M_copy_dataERKS5_(ptr noundef nonnull align 8 dereferenceable(24) %0, ptr noundef nonnull align 8 dereferenceable(24) %1) #0 comdat align 2 {
  %3 = alloca ptr, align 8
  %4 = alloca ptr, align 8
  store ptr %0, ptr %3, align 8, !tbaa !99
  store ptr %1, ptr %4, align 8, !tbaa !99
  %5 = load ptr, ptr %3, align 8
  %6 = load ptr, ptr %4, align 8, !tbaa !99
  %7 = getelementptr inbounds nuw %"struct.std::_Vector_base<LIEF::PE::DelayImportEntry, std::allocator<LIEF::PE::DelayImportEntry>>::_Vector_impl_data", ptr %6, i32 0, i32 0
  %8 = load ptr, ptr %7, align 8, !tbaa !84
  %9 = getelementptr inbounds nuw %"struct.std::_Vector_base<LIEF::PE::DelayImportEntry, std::allocator<LIEF::PE::DelayImportEntry>>::_Vector_impl_data", ptr %5, i32 0, i32 0
  store ptr %8, ptr %9, align 8, !tbaa !84
  %10 = load ptr, ptr %4, align 8, !tbaa !99
  %11 = getelementptr inbounds nuw %"struct.std::_Vector_base<LIEF::PE::DelayImportEntry, std::allocator<LIEF::PE::DelayImportEntry>>::_Vector_impl_data", ptr %10, i32 0, i32 1
  %12 = load ptr, ptr %11, align 8, !tbaa !85
  %13 = getelementptr inbounds nuw %"struct.std::_Vector_base<LIEF::PE::DelayImportEntry, std::allocator<LIEF::PE::DelayImportEntry>>::_Vector_impl_data", ptr %5, i32 0, i32 1
  store ptr %12, ptr %13, align 8, !tbaa !85
  %14 = load ptr, ptr %4, align 8, !tbaa !99
  %15 = getelementptr inbounds nuw %"struct.std::_Vector_base<LIEF::PE::DelayImportEntry, std::allocator<LIEF::PE::DelayImportEntry>>::_Vector_impl_data", ptr %14, i32 0, i32 2
  %16 = load ptr, ptr %15, align 8, !tbaa !86
  %17 = getelementptr inbounds nuw %"struct.std::_Vector_base<LIEF::PE::DelayImportEntry, std::allocator<LIEF::PE::DelayImportEntry>>::_Vector_impl_data", ptr %5, i32 0, i32 2
  store ptr %16, ptr %17, align 8, !tbaa !86
  ret void
}

; Function Attrs: mustprogress nounwind uwtable
define linkonce_odr hidden void @_ZNSt12_Vector_baseIN4LIEF2PE16DelayImportEntryESaIS2_EE17_Vector_impl_dataC2Ev(ptr noundef nonnull align 8 dereferenceable(24) %0) unnamed_addr #0 comdat align 2 {
  %2 = alloca ptr, align 8
  store ptr %0, ptr %2, align 8, !tbaa !99
  %3 = load ptr, ptr %2, align 8
  %4 = getelementptr inbounds nuw %"struct.std::_Vector_base<LIEF::PE::DelayImportEntry, std::allocator<LIEF::PE::DelayImportEntry>>::_Vector_impl_data", ptr %3, i32 0, i32 0
  store ptr null, ptr %4, align 8, !tbaa !84
  %5 = getelementptr inbounds nuw %"struct.std::_Vector_base<LIEF::PE::DelayImportEntry, std::allocator<LIEF::PE::DelayImportEntry>>::_Vector_impl_data", ptr %3, i32 0, i32 1
  store ptr null, ptr %5, align 8, !tbaa !85
  %6 = getelementptr inbounds nuw %"struct.std::_Vector_base<LIEF::PE::DelayImportEntry, std::allocator<LIEF::PE::DelayImportEntry>>::_Vector_impl_data", ptr %3, i32 0, i32 2
  store ptr null, ptr %6, align 8, !tbaa !86
  ret void
}

; Function Attrs: mustprogress nounwind uwtable
define linkonce_odr hidden void @_ZN9__gnu_cxx14__alloc_traitsISaIN4LIEF2PE16DelayImportEntryEES3_E10_S_on_swapERS4_S6_(ptr noundef nonnull align 1 dereferenceable(1) %0, ptr noundef nonnull align 1 dereferenceable(1) %1) #0 comdat align 2 {
  %3 = alloca ptr, align 8
  %4 = alloca ptr, align 8
  store ptr %0, ptr %3, align 8, !tbaa !74
  store ptr %1, ptr %4, align 8, !tbaa !74
  %5 = load ptr, ptr %3, align 8, !tbaa !74
  %6 = load ptr, ptr %4, align 8, !tbaa !74
  call void @_ZSt15__alloc_on_swapISaIN4LIEF2PE16DelayImportEntryEEEvRT_S5_(ptr noundef nonnull align 1 dereferenceable(1) %5, ptr noundef nonnull align 1 dereferenceable(1) %6)
  ret void
}

; Function Attrs: mustprogress nounwind uwtable
define linkonce_odr hidden noundef nonnull align 1 dereferenceable(1) ptr @_ZNSt12_Vector_baseIN4LIEF2PE16DelayImportEntryESaIS2_EE19_M_get_Tp_allocatorEv(ptr noundef nonnull align 8 dereferenceable(24) %0) #0 comdat align 2 {
  %2 = alloca ptr, align 8
  store ptr %0, ptr %2, align 8, !tbaa !70
  %3 = load ptr, ptr %2, align 8
  %4 = getelementptr inbounds nuw %"struct.std::_Vector_base", ptr %3, i32 0, i32 0
  ret ptr %4
}

; Function Attrs: mustprogress nounwind uwtable
define linkonce_odr hidden void @_ZNSt12_Vector_baseIN4LIEF2PE16DelayImportEntryESaIS2_EE17_Vector_impl_data12_M_swap_dataERS5_(ptr noundef nonnull align 8 dereferenceable(24) %0, ptr noundef nonnull align 8 dereferenceable(24) %1) #0 comdat align 2 {
  %3 = alloca ptr, align 8
  %4 = alloca ptr, align 8
  %5 = alloca %"struct.std::_Vector_base<LIEF::PE::DelayImportEntry, std::allocator<LIEF::PE::DelayImportEntry>>::_Vector_impl_data", align 8
  store ptr %0, ptr %3, align 8, !tbaa !99
  store ptr %1, ptr %4, align 8, !tbaa !99
  %6 = load ptr, ptr %3, align 8
  call void @llvm.lifetime.start.p0(i64 24, ptr %5) #20
  call void @_ZNSt12_Vector_baseIN4LIEF2PE16DelayImportEntryESaIS2_EE17_Vector_impl_dataC2Ev(ptr noundef nonnull align 8 dereferenceable(24) %5) #20
  call void @_ZNSt12_Vector_baseIN4LIEF2PE16DelayImportEntryESaIS2_EE17_Vector_impl_data12_M_copy_dataERKS5_(ptr noundef nonnull align 8 dereferenceable(24) %5, ptr noundef nonnull align 8 dereferenceable(24) %6) #20
  %7 = load ptr, ptr %4, align 8, !tbaa !99
  call void @_ZNSt12_Vector_baseIN4LIEF2PE16DelayImportEntryESaIS2_EE17_Vector_impl_data12_M_copy_dataERKS5_(ptr noundef nonnull align 8 dereferenceable(24) %6, ptr noundef nonnull align 8 dereferenceable(24) %7) #20
  %8 = load ptr, ptr %4, align 8, !tbaa !99
  call void @_ZNSt12_Vector_baseIN4LIEF2PE16DelayImportEntryESaIS2_EE17_Vector_impl_data12_M_copy_dataERKS5_(ptr noundef nonnull align 8 dereferenceable(24) %8, ptr noundef nonnull align 8 dereferenceable(24) %5) #20
  call void @llvm.lifetime.end.p0(i64 24, ptr %5) #20
  ret void
}

; Function Attrs: mustprogress nounwind uwtable
define linkonce_odr hidden void @_ZNSt6vectorIN4LIEF2PE16DelayImportEntryESaIS2_EE4swapERS4_(ptr noundef nonnull align 8 dereferenceable(24) %0, ptr noundef nonnull align 8 dereferenceable(24) %1) #0 comdat align 2 {
  %3 = alloca ptr, align 8
  %4 = alloca ptr, align 8
  store ptr %0, ptr %3, align 8, !tbaa !14
  store ptr %1, ptr %4, align 8, !tbaa !14
  %5 = load ptr, ptr %3, align 8
  br label %6

6:                                                ; preds = %2
  br label %7

7:                                                ; preds = %6
  %8 = getelementptr inbounds nuw %"struct.std::_Vector_base", ptr %5, i32 0, i32 0
  %9 = load ptr, ptr %4, align 8, !tbaa !14
  %10 = getelementptr inbounds nuw %"struct.std::_Vector_base", ptr %9, i32 0, i32 0
  call void @_ZNSt12_Vector_baseIN4LIEF2PE16DelayImportEntryESaIS2_EE17_Vector_impl_data12_M_swap_dataERS5_(ptr noundef nonnull align 8 dereferenceable(24) %8, ptr noundef nonnull align 8 dereferenceable(24) %10) #20
  %11 = call noundef nonnull align 1 dereferenceable(1) ptr @_ZNSt12_Vector_baseIN4LIEF2PE16DelayImportEntryESaIS2_EE19_M_get_Tp_allocatorEv(ptr noundef nonnull align 8 dereferenceable(24) %5) #20
  %12 = load ptr, ptr %4, align 8, !tbaa !14
  %13 = call noundef nonnull align 1 dereferenceable(1) ptr @_ZNSt12_Vector_baseIN4LIEF2PE16DelayImportEntryESaIS2_EE19_M_get_Tp_allocatorEv(ptr noundef nonnull align 8 dereferenceable(24) %12) #20
  call void @_ZN9__gnu_cxx14__alloc_traitsISaIN4LIEF2PE16DelayImportEntryEES3_E10_S_on_swapERS4_S6_(ptr noundef nonnull align 1 dereferenceable(1) %11, ptr noundef nonnull align 1 dereferenceable(1) %13)
  ret void
}

; Function Attrs: inlinehint mustprogress nounwind uwtable
define linkonce_odr hidden void @_ZSt4swapIN4LIEF2PE7PE_TYPEEENSt9enable_ifIXsr6__and_ISt6__not_ISt15__is_tuple_likeIT_EESt21is_move_constructibleIS6_ESt18is_move_assignableIS6_EEE5valueEvE4typeERS6_SF_(ptr noundef nonnull align 2 dereferenceable(2) %0, ptr noundef nonnull align 2 dereferenceable(2) %1) #1 comdat {
  %3 = alloca ptr, align 8
  %4 = alloca ptr, align 8
  %5 = alloca i16, align 2
  store ptr %0, ptr %3, align 8, !tbaa !16
  store ptr %1, ptr %4, align 8, !tbaa !16
  call void @llvm.lifetime.start.p0(i64 2, ptr %5) #20
  %6 = load ptr, ptr %3, align 8, !tbaa !16
  %7 = load i16, ptr %6, align 2, !tbaa !17
  store i16 %7, ptr %5, align 2, !tbaa !17
  %8 = load ptr, ptr %4, align 8, !tbaa !16
  %9 = load i16, ptr %8, align 2, !tbaa !17
  %10 = load ptr, ptr %3, align 8, !tbaa !16
  store i16 %9, ptr %10, align 2, !tbaa !17
  %11 = load i16, ptr %5, align 2, !tbaa !17
  %12 = load ptr, ptr %4, align 8, !tbaa !16
  store i16 %11, ptr %12, align 2, !tbaa !17
  call void @llvm.lifetime.end.p0(i64 2, ptr %5) #20
  ret void
}

; Function Attrs: inlinehint mustprogress nounwind uwtable
define linkonce_odr void @_ZSt4swapIN4LIEF2PE16DelayImportEntryESaIS2_EEvRSt6vectorIT_T0_ES8_(ptr noundef nonnull align 8 dereferenceable(24) %0, ptr noundef nonnull align 8 dereferenceable(24) %1) #1 comdat {
  %3 = alloca ptr, align 8
  %4 = alloca ptr, align 8
  store ptr %0, ptr %3, align 8, !tbaa !14
  store ptr %1, ptr %4, align 8, !tbaa !14
  %5 = load ptr, ptr %3, align 8, !tbaa !14
  %6 = load ptr, ptr %4, align 8, !tbaa !14
  call void @_ZNSt6vectorIN4LIEF2PE16DelayImportEntryESaIS2_EE4swapERS4_(ptr noundef nonnull align 8 dereferenceable(24) %5, ptr noundef nonnull align 8 dereferenceable(24) %6) #20
  ret void
}

; Function Attrs: inlinehint mustprogress nounwind uwtable
define linkonce_odr void @_ZSt4swapIcSt11char_traitsIcESaIcEEvRNSt7__cxx1112basic_stringIT_T0_T1_EES9_(ptr noundef nonnull align 8 dereferenceable(32) %0, ptr noundef nonnull align 8 dereferenceable(32) %1) #1 comdat {
  %3 = alloca ptr, align 8
  %4 = alloca ptr, align 8
  store ptr %0, ptr %3, align 8, !tbaa !12
  store ptr %1, ptr %4, align 8, !tbaa !12
  %5 = load ptr, ptr %3, align 8, !tbaa !12
  %6 = load ptr, ptr %4, align 8, !tbaa !12
  call void @_ZNSt7__cxx1112basic_stringIcSt11char_traitsIcESaIcEE4swapERS4_(ptr noundef nonnull align 8 dereferenceable(32) %5, ptr noundef nonnull align 8 dereferenceable(32) %6) #20
  ret void
}

; Function Attrs: inlinehint mustprogress nounwind uwtable
define linkonce_odr void @_ZSt4swapIjENSt9enable_ifIXsr6__and_ISt6__not_ISt15__is_tuple_likeIT_EESt21is_move_constructibleIS3_ESt18is_move_assignableIS3_EEE5valueEvE4typeERS3_SC_(ptr noundef nonnull align 4 dereferenceable(4) %0, ptr noundef nonnull align 4 dereferenceable(4) %1) #1 comdat {
  %3 = alloca ptr, align 8
  %4 = alloca ptr, align 8
  %5 = alloca i32, align 4
  store ptr %0, ptr %3, align 8, !tbaa !8
  store ptr %1, ptr %4, align 8, !tbaa !8
  call void @llvm.lifetime.start.p0(i64 4, ptr %5) #20
  %6 = load ptr, ptr %3, align 8, !tbaa !8
  %7 = load i32, ptr %6, align 4, !tbaa !10
  store i32 %7, ptr %5, align 4, !tbaa !10
  %8 = load ptr, ptr %4, align 8, !tbaa !8
  %9 = load i32, ptr %8, align 4, !tbaa !10
  %10 = load ptr, ptr %3, align 8, !tbaa !8
  store i32 %9, ptr %10, align 4, !tbaa !10
  %11 = load i32, ptr %5, align 4, !tbaa !10
  %12 = load ptr, ptr %4, align 8, !tbaa !8
  store i32 %11, ptr %12, align 4, !tbaa !10
  call void @llvm.lifetime.end.p0(i64 4, ptr %5) #20
  ret void
}

; Function Attrs: mustprogress nounwind uwtable
define void @_ZN4LIEF2PE11DelayImport4swapERS1_(ptr noundef nonnull align 8 dereferenceable(98) %0, ptr noundef nonnull align 8 dereferenceable(98) %1) #0 align 2 {
  %3 = alloca ptr, align 8
  %4 = alloca ptr, align 8
  store ptr %0, ptr %3, align 8, !tbaa !3
  store ptr %1, ptr %4, align 8, !tbaa !3
  %5 = load ptr, ptr %3, align 8
  %6 = getelementptr inbounds nuw %"class.LIEF::PE::DelayImport", ptr %5, i32 0, i32 1
  %7 = load ptr, ptr %4, align 8, !tbaa !3
  %8 = getelementptr inbounds nuw %"class.LIEF::PE::DelayImport", ptr %7, i32 0, i32 1
  call void @_ZSt4swapIjENSt9enable_ifIXsr6__and_ISt6__not_ISt15__is_tuple_likeIT_EESt21is_move_constructibleIS3_ESt18is_move_assignableIS3_EEE5valueEvE4typeERS3_SC_(ptr noundef nonnull align 4 dereferenceable(4) %6, ptr noundef nonnull align 4 dereferenceable(4) %8) #20
  %9 = getelementptr inbounds nuw %"class.LIEF::PE::DelayImport", ptr %5, i32 0, i32 3
  %10 = load ptr, ptr %4, align 8, !tbaa !3
  %11 = getelementptr inbounds nuw %"class.LIEF::PE::DelayImport", ptr %10, i32 0, i32 3
  call void @_ZSt4swapIcSt11char_traitsIcESaIcEEvRNSt7__cxx1112basic_stringIT_T0_T1_EES9_(ptr noundef nonnull align 8 dereferenceable(32) %9, ptr noundef nonnull align 8 dereferenceable(32) %11) #20
  %12 = getelementptr inbounds nuw %"class.LIEF::PE::DelayImport", ptr %5, i32 0, i32 4
  %13 = load ptr, ptr %4, align 8, !tbaa !3
  %14 = getelementptr inbounds nuw %"class.LIEF::PE::DelayImport", ptr %13, i32 0, i32 4
  call void @_ZSt4swapIjENSt9enable_ifIXsr6__and_ISt6__not_ISt15__is_tuple_likeIT_EESt21is_move_constructibleIS3_ESt18is_move_assignableIS3_EEE5valueEvE4typeERS3_SC_(ptr noundef nonnull align 4 dereferenceable(4) %12, ptr noundef nonnull align 4 dereferenceable(4) %14) #20
  %15 = getelementptr inbounds nuw %"class.LIEF::PE::DelayImport", ptr %5, i32 0, i32 5
  %16 = load ptr, ptr %4, align 8, !tbaa !3
  %17 = getelementptr inbounds nuw %"class.LIEF::PE::DelayImport", ptr %16, i32 0, i32 5
  call void @_ZSt4swapIjENSt9enable_ifIXsr6__and_ISt6__not_ISt15__is_tuple_likeIT_EESt21is_move_constructibleIS3_ESt18is_move_assignableIS3_EEE5valueEvE4typeERS3_SC_(ptr noundef nonnull align 4 dereferenceable(4) %15, ptr noundef nonnull align 4 dereferenceable(4) %17) #20
  %18 = getelementptr inbounds nuw %"class.LIEF::PE::DelayImport", ptr %5, i32 0, i32 6
  %19 = load ptr, ptr %4, align 8, !tbaa !3
  %20 = getelementptr inbounds nuw %"class.LIEF::PE::DelayImport", ptr %19, i32 0, i32 6
  call void @_ZSt4swapIjENSt9enable_ifIXsr6__and_ISt6__not_ISt15__is_tuple_likeIT_EESt21is_move_constructibleIS3_ESt18is_move_assignableIS3_EEE5valueEvE4typeERS3_SC_(ptr noundef nonnull align 4 dereferenceable(4) %18, ptr noundef nonnull align 4 dereferenceable(4) %20) #20
  %21 = getelementptr inbounds nuw %"class.LIEF::PE::DelayImport", ptr %5, i32 0, i32 7
  %22 = load ptr, ptr %4, align 8, !tbaa !3
  %23 = getelementptr inbounds nuw %"class.LIEF::PE::DelayImport", ptr %22, i32 0, i32 7
  call void @_ZSt4swapIjENSt9enable_ifIXsr6__and_ISt6__not_ISt15__is_tuple_likeIT_EESt21is_move_constructibleIS3_ESt18is_move_assignableIS3_EEE5valueEvE4typeERS3_SC_(ptr noundef nonnull align 4 dereferenceable(4) %21, ptr noundef nonnull align 4 dereferenceable(4) %23) #20
  %24 = getelementptr inbounds nuw %"class.LIEF::PE::DelayImport", ptr %5, i32 0, i32 8
  %25 = load ptr, ptr %4, align 8, !tbaa !3
  %26 = getelementptr inbounds nuw %"class.LIEF::PE::DelayImport", ptr %25, i32 0, i32 8
  call void @_ZSt4swapIjENSt9enable_ifIXsr6__and_ISt6__not_ISt15__is_tuple_likeIT_EESt21is_move_constructibleIS3_ESt18is_move_assignableIS3_EEE5valueEvE4typeERS3_SC_(ptr noundef nonnull align 4 dereferenceable(4) %24, ptr noundef nonnull align 4 dereferenceable(4) %26) #20
  %27 = getelementptr inbounds nuw %"class.LIEF::PE::DelayImport", ptr %5, i32 0, i32 9
  %28 = load ptr, ptr %4, align 8, !tbaa !3
  %29 = getelementptr inbounds nuw %"class.LIEF::PE::DelayImport", ptr %28, i32 0, i32 9
  call void @_ZSt4swapIjENSt9enable_ifIXsr6__and_ISt6__not_ISt15__is_tuple_likeIT_EESt21is_move_constructibleIS3_ESt18is_move_assignableIS3_EEE5valueEvE4typeERS3_SC_(ptr noundef nonnull align 4 dereferenceable(4) %27, ptr noundef nonnull align 4 dereferenceable(4) %29) #20
  %30 = getelementptr inbounds nuw %"class.LIEF::PE::DelayImport", ptr %5, i32 0, i32 10
  %31 = load ptr, ptr %4, align 8, !tbaa !3
  %32 = getelementptr inbounds nuw %"class.LIEF::PE::DelayImport", ptr %31, i32 0, i32 10
  call void @_ZSt4swapIN4LIEF2PE16DelayImportEntryESaIS2_EEvRSt6vectorIT_T0_ES8_(ptr noundef nonnull align 8 dereferenceable(24) %30, ptr noundef nonnull align 8 dereferenceable(24) %32) #20
  %33 = getelementptr inbounds nuw %"class.LIEF::PE::DelayImport", ptr %5, i32 0, i32 11
  %34 = load ptr, ptr %4, align 8, !tbaa !3
  %35 = getelementptr inbounds nuw %"class.LIEF::PE::DelayImport", ptr %34, i32 0, i32 11
  call void @_ZSt4swapIN4LIEF2PE7PE_TYPEEENSt9enable_ifIXsr6__and_ISt6__not_ISt15__is_tuple_likeIT_EESt21is_move_constructibleIS6_ESt18is_move_assignableIS6_EEE5valueEvE4typeERS6_SF_(ptr noundef nonnull align 2 dereferenceable(2) %33, ptr noundef nonnull align 2 dereferenceable(2) %35) #20
  ret void
}