; Function Attrs: mustprogress nounwind uwtable
define void @_ZN4LIEF2PE11DelayImport4swapERS1_(ptr noundef nonnull align 8 dereferenceable(98) %0, ptr noundef nonnull align 8 dereferenceable(98) %1) local_unnamed_addr #0 align 2 {
  %3 = getelementptr inbounds nuw i8, ptr %0, i64 8
  %4 = getelementptr inbounds nuw i8, ptr %1, i64 8
  %5 = load i32, ptr %3, align 8, !tbaa !3
  %6 = load i32, ptr %4, align 8, !tbaa !3
  store i32 %6, ptr %3, align 8, !tbaa !3
  store i32 %5, ptr %4, align 8, !tbaa !3
  %7 = getelementptr inbounds nuw i8, ptr %0, i64 16
  %8 = getelementptr inbounds nuw i8, ptr %1, i64 16
  tail call void @_ZNSt7__cxx1112basic_stringIcSt11char_traitsIcESaIcEE4swapERS4_(ptr noundef nonnull align 8 dereferenceable(32) %7, ptr noundef nonnull align 8 dereferenceable(32) %8) #21
  %9 = getelementptr inbounds nuw i8, ptr %0, i64 48
  %10 = getelementptr inbounds nuw i8, ptr %1, i64 48
  %11 = load i32, ptr %9, align 8, !tbaa !3
  %12 = load i32, ptr %10, align 8, !tbaa !3
  store i32 %12, ptr %9, align 8, !tbaa !3
  store i32 %11, ptr %10, align 8, !tbaa !3
  %13 = getelementptr inbounds nuw i8, ptr %0, i64 52
  %14 = getelementptr inbounds nuw i8, ptr %1, i64 52
  %15 = load i32, ptr %13, align 4, !tbaa !3
  %16 = load i32, ptr %14, align 4, !tbaa !3
  store i32 %16, ptr %13, align 4, !tbaa !3
  store i32 %15, ptr %14, align 4, !tbaa !3
  %17 = getelementptr inbounds nuw i8, ptr %0, i64 56
  %18 = getelementptr inbounds nuw i8, ptr %1, i64 56
  %19 = load i32, ptr %17, align 8, !tbaa !3
  %20 = load i32, ptr %18, align 8, !tbaa !3
  store i32 %20, ptr %17, align 8, !tbaa !3
  store i32 %19, ptr %18, align 8, !tbaa !3
  %21 = getelementptr inbounds nuw i8, ptr %0, i64 60
  %22 = getelementptr inbounds nuw i8, ptr %1, i64 60
  %23 = load i32, ptr %21, align 4, !tbaa !3
  %24 = load i32, ptr %22, align 4, !tbaa !3
  store i32 %24, ptr %21, align 4, !tbaa !3
  store i32 %23, ptr %22, align 4, !tbaa !3
  %25 = getelementptr inbounds nuw i8, ptr %0, i64 64
  %26 = getelementptr inbounds nuw i8, ptr %1, i64 64
  %27 = load i32, ptr %25, align 8, !tbaa !3
  %28 = load i32, ptr %26, align 8, !tbaa !3
  store i32 %28, ptr %25, align 8, !tbaa !3
  store i32 %27, ptr %26, align 8, !tbaa !3
  %29 = getelementptr inbounds nuw i8, ptr %0, i64 68
  %30 = getelementptr inbounds nuw i8, ptr %1, i64 68
  %31 = load i32, ptr %29, align 4, !tbaa !3
  %32 = load i32, ptr %30, align 4, !tbaa !3
  store i32 %32, ptr %29, align 4, !tbaa !3
  store i32 %31, ptr %30, align 4, !tbaa !3
  %33 = getelementptr inbounds nuw i8, ptr %0, i64 72
  %34 = getelementptr inbounds nuw i8, ptr %1, i64 72
  %35 = load ptr, ptr %33, align 8, !tbaa !7
  %36 = getelementptr inbounds nuw i8, ptr %0, i64 80
  %37 = load ptr, ptr %36, align 8, !tbaa !11
  %38 = getelementptr inbounds nuw i8, ptr %0, i64 88
  %39 = load ptr, ptr %38, align 8, !tbaa !12
  %40 = load ptr, ptr %34, align 8, !tbaa !7
  store ptr %40, ptr %33, align 8, !tbaa !7
  %41 = getelementptr inbounds nuw i8, ptr %1, i64 80
  %42 = load ptr, ptr %41, align 8, !tbaa !11
  store ptr %42, ptr %36, align 8, !tbaa !11
  %43 = getelementptr inbounds nuw i8, ptr %1, i64 88
  %44 = load ptr, ptr %43, align 8, !tbaa !12
  store ptr %44, ptr %38, align 8, !tbaa !12
  store ptr %35, ptr %34, align 8, !tbaa !7
  store ptr %37, ptr %41, align 8, !tbaa !11
  store ptr %39, ptr %43, align 8, !tbaa !12
  %45 = getelementptr inbounds nuw i8, ptr %0, i64 96
  %46 = getelementptr inbounds nuw i8, ptr %1, i64 96
  %47 = load i16, ptr %45, align 8, !tbaa !13
  %48 = load i16, ptr %46, align 8, !tbaa !13
  store i16 %48, ptr %45, align 8, !tbaa !13
  store i16 %47, ptr %46, align 8, !tbaa !13
  ret void
}